; Function Attrs: nounwind uwtable
define internal fastcc range(i32 0, 2) i32 @Hash_DRBG_Reseed(ptr noundef %0, ptr noundef %1, i32 noundef %2) unnamed_addr #0 {
  %4 = alloca [55 x i8], align 16
  call void @llvm.lifetime.start.p0(i64 55, ptr nonnull %4) #9
  %5 = icmp eq ptr %0, null
  br i1 %5, label %.thread, label %6

6:                                                ; preds = %3
  call void @llvm.memset.p0.i64(ptr noundef nonnull align 16 dereferenceable(55) %4, i8 0, i64 55, i1 false)
  %7 = getelementptr inbounds nuw i8, ptr %0, i64 4
  %8 = call fastcc i32 @Hash_df(ptr noundef nonnull %0, ptr noundef nonnull %4, i8 noundef zeroext 1, ptr noundef nonnull %7, i32 noundef 55, ptr noundef %1, i32 noundef %2)
  %9 = icmp eq i32 %8, 0
  br i1 %9, label %.lr.ph29.preheader.i, label %.thread

.lr.ph29.preheader.i:                             ; preds = %6
  call void @llvm.memcpy.p0.p0.i64(ptr noundef nonnull align 4 dereferenceable(55) %7, ptr noundef nonnull align 16 dereferenceable(55) %4, i64 55, i1 false)
  br label %.lr.ph29.i

.lr.ph29.i:                                       ; preds = %.lr.ph29.i, %.lr.ph29.preheader.i
  %.01528.i = phi ptr [ %10, %.lr.ph29.i ], [ %4, %.lr.ph29.preheader.i ]
  %.01827.i = phi i32 [ %11, %.lr.ph29.i ], [ 55, %.lr.ph29.preheader.i ]
  %10 = getelementptr inbounds nuw i8, ptr %.01528.i, i64 8
  store volatile i64 0, ptr %.01528.i, align 8, !tbaa !11
  %11 = add nsw i32 %.01827.i, -8
  %12 = icmp ugt i32 %11, 7
  br i1 %12, label %.lr.ph29.i, label %.lr.ph35.i, !llvm.loop !13

.lr.ph35.i:                                       ; preds = %.lr.ph29.i, %.lr.ph35.i
  %.11734.i = phi ptr [ %14, %.lr.ph35.i ], [ %10, %.lr.ph29.i ]
  %.11933.i = phi i32 [ %13, %.lr.ph35.i ], [ 7, %.lr.ph29.i ]
  %13 = add nsw i32 %.11933.i, -1
  %14 = getelementptr inbounds nuw i8, ptr %.11734.i, i64 1
  store volatile i8 0, ptr %.11734.i, align 1, !tbaa !15
  %.not22.i = icmp eq i32 %13, 0
  br i1 %.not22.i, label %.loopexit, label %.lr.ph35.i, !llvm.loop !16

.loopexit:                                        ; preds = %.lr.ph35.i
  %15 = getelementptr inbounds nuw i8, ptr %0, i64 59
  %16 = tail call fastcc i32 @Hash_df(ptr noundef nonnull %0, ptr noundef nonnull %15, i8 noundef zeroext 0, ptr noundef nonnull %7, i32 noundef 55, ptr noundef null, i32 noundef 0)
  %17 = icmp eq i32 %16, 0
  br i1 %17, label %18, label %.thread

18:                                               ; preds = %.loopexit
  store i32 1, ptr %0, align 8, !tbaa !17
  br label %.thread

.thread:                                          ; preds = %6, %.loopexit, %18, %3
  %.013 = phi i32 [ 1, %3 ], [ 0, %18 ], [ 1, %.loopexit ], [ 1, %6 ]
  call void @llvm.lifetime.end.p0(i64 55, ptr nonnull %4) #9
  ret i32 %.013
}